; Function Attrs: nounwind uwtable
define range(i32 -2147483648, 1) i32 @ff_subtitles_queue_read_packet(ptr noundef captures(none) %0, ptr noundef %1) local_unnamed_addr #0 {
  %3 = getelementptr inbounds nuw i8, ptr %0, i64 16
  %4 = load i32, ptr %3, align 8, !tbaa !49
  %5 = getelementptr inbounds nuw i8, ptr %0, i64 8
  %6 = load i32, ptr %5, align 8, !tbaa !23
  %7 = icmp eq i32 %4, %6
  br i1 %7, label %21, label %8

8:                                                ; preds = %2
  %9 = load ptr, ptr %0, align 8, !tbaa !27
  %10 = sext i32 %4 to i64
  %11 = getelementptr inbounds ptr, ptr %9, i64 %10
  %12 = load ptr, ptr %11, align 8, !tbaa !28
  %13 = tail call i32 @av_packet_ref(ptr noundef %1, ptr noundef %12) #11
  %14 = icmp slt i32 %13, 0
  br i1 %14, label %21, label %15

15:                                               ; preds = %8
  %16 = getelementptr inbounds nuw i8, ptr %1, i64 8
  %17 = load i64, ptr %16, align 8, !tbaa !43
  %18 = getelementptr inbounds nuw i8, ptr %1, i64 16
  store i64 %17, ptr %18, align 8, !tbaa !50
  %19 = load i32, ptr %3, align 8, !tbaa !49
  %20 = add nsw i32 %19, 1
  store i32 %20, ptr %3, align 8, !tbaa !49
  br label %21

21:                                               ; preds = %8, %2, %15
  %.0 = phi i32 [ 0, %15 ], [ -541478725, %2 ], [ %13, %8 ]
  ret i32 %.0
}